target datalayout = "e-m:e-p270:32:32-p271:32:32-p272:64:64-i64:64-i128:128-f80:128-n8:16:32:64-S128"
target triple = "x86_64-unknown-linux-gnu"

; Function Attrs: mustprogress uwtable
define hidden noundef zeroext i1 @_ZNK7datalog11rel_context12try_get_sizeEP9func_declRj(ptr noundef nonnull align 8 dereferenceable(432) %this, ptr noundef %p, ptr noundef nonnull align 4 dereferenceable(4) %rel_size) unnamed_addr #4 align 2 {
entry:
  %retval = alloca i1, align 1
  %this.addr = alloca ptr, align 8
  %p.addr = alloca ptr, align 8
  %rel_size.addr = alloca ptr, align 8
  %rb = alloca ptr, align 8
  store ptr %this, ptr %this.addr, align 8
  store ptr %p, ptr %p.addr, align 8
  store ptr %rel_size, ptr %rel_size.addr, align 8
  %this1 = load ptr, ptr %this.addr, align 8
  %0 = load ptr, ptr %p.addr, align 8
  %vtable = load ptr, ptr %this1, align 8
  %vfn = getelementptr inbounds ptr, ptr %vtable, i64 27
  %1 = load ptr, ptr %vfn, align 8
  %call = call noundef ptr %1(ptr noundef nonnull align 8 dereferenceable(432) %this1, ptr noundef %0)
  store ptr %call, ptr %rb, align 8
  %2 = load ptr, ptr %rb, align 8
  %tobool = icmp ne ptr %2, null
  br i1 %tobool, label %land.lhs.true, label %if.else

land.lhs.true:                                    ; preds = %entry
  %3 = load ptr, ptr %rb, align 8
  %vtable2 = load ptr, ptr %3, align 8
  %vfn3 = getelementptr inbounds ptr, ptr %vtable2, i64 14
  %4 = load ptr, ptr %vfn3, align 8
  %call4 = call noundef zeroext i1 %4(ptr noundef nonnull align 8 dereferenceable(28) %3)
  br i1 %call4, label %if.then, label %if.else

if.then:                                          ; preds = %land.lhs.true
  %5 = load ptr, ptr %rb, align 8
  %vtable5 = load ptr, ptr %5, align 8
  %vfn6 = getelementptr inbounds ptr, ptr %vtable5, i64 12
  %6 = load ptr, ptr %vfn6, align 8
  %call7 = call noundef i32 %6(ptr noundef nonnull align 8 dereferenceable(28) %5)
  %7 = load ptr, ptr %rel_size.addr, align 8
  store i32 %call7, ptr %7, align 4
  store i1 true, ptr %retval, align 1
  br label %return

if.else:                                          ; preds = %land.lhs.true, %entry
  store i1 false, ptr %retval, align 1
  br label %return

return:                                           ; preds = %if.else, %if.then
  %8 = load i1, ptr %retval, align 1
  ret i1 %8
}