; Function Attrs: mustprogress uwtable
define hidden noundef zeroext i1 @_ZNK7datalog11rel_context12try_get_sizeEP9func_declRj(ptr noundef nonnull align 8 dereferenceable(432) %this, ptr noundef %p, ptr nocapture noundef nonnull writeonly align 4 dereferenceable(4) %rel_size) unnamed_addr #3 align 2 {
entry:
  %vtable = load ptr, ptr %this, align 8
  %vfn = getelementptr inbounds i8, ptr %vtable, i64 216
  %0 = load ptr, ptr %vfn, align 8
  %call = tail call noundef ptr %0(ptr noundef nonnull align 8 dereferenceable(432) %this, ptr noundef %p)
  %tobool.not = icmp eq ptr %call, null
  br i1 %tobool.not, label %return, label %land.lhs.true

land.lhs.true:                                    ; preds = %entry
  %vtable2 = load ptr, ptr %call, align 8
  %vfn3 = getelementptr inbounds i8, ptr %vtable2, i64 112
  %1 = load ptr, ptr %vfn3, align 8
  %call4 = tail call noundef zeroext i1 %1(ptr noundef nonnull align 8 dereferenceable(28) %call)
  br i1 %call4, label %if.then, label %return

if.then:                                          ; preds = %land.lhs.true
  %vtable5 = load ptr, ptr %call, align 8
  %vfn6 = getelementptr inbounds i8, ptr %vtable5, i64 96
  %2 = load ptr, ptr %vfn6, align 8
  %call7 = tail call noundef i32 %2(ptr noundef nonnull align 8 dereferenceable(28) %call)
  store i32 %call7, ptr %rel_size, align 4
  br label %return

return:                                           ; preds = %entry, %land.lhs.true, %if.then
  %retval.0 = phi i1 [ true, %if.then ], [ false, %land.lhs.true ], [ false, %entry ]
  ret i1 %retval.0
}